; Function Attrs: mustprogress uwtable
define hidden void @_ZN4cvc58internal6theory5arith2nl28ArithNlCompareProofGenerator13setCompareLitEPNS0_11NodeManagerENS0_12NodeTemplateILb1EEENS0_4kind6Kind_tERKS8_SC_(ptr noundef readnone captures(none) %0, ptr noundef readonly captures(none) %1, i32 noundef %2, ptr noundef nonnull readonly align 8 captures(none) dereferenceable(8) %3, ptr noundef nonnull readonly align 8 captures(none) dereferenceable(8) %4) local_unnamed_addr #3 align 2 personality ptr @__gxx_personality_v0 {
  %6 = alloca %"class.cvc5::internal::expr::Attribute", align 1
  %7 = alloca %"class.cvc5::internal::NodeTemplate", align 8
  call void @llvm.lifetime.start.p0(i64 8, ptr nonnull %7) #24
  call void @_ZN4cvc58internal6theory5arith2nl28ArithNlCompareProofGenerator5mkLitEPNS0_11NodeManagerENS0_4kind6Kind_tERKNS0_12NodeTemplateILb1EEESC_(ptr dead_on_unwind nonnull writable sret(%"class.cvc5::internal::NodeTemplate") align 8 %7, ptr poison, i32 noundef %2, ptr noundef nonnull align 8 dereferenceable(8) %3, ptr noundef nonnull align 8 dereferenceable(8) %4)
  %8 = load ptr, ptr %1, align 8, !tbaa !6
  %9 = getelementptr inbounds nuw i8, ptr %8, i64 16
  %10 = load ptr, ptr %9, align 8, !tbaa !59
  %11 = getelementptr inbounds nuw i8, ptr %10, i64 80
  %12 = load ptr, ptr %11, align 8, !tbaa !63
  call void @llvm.lifetime.start.p0(i64 1, ptr nonnull %6) #24
  invoke void @_ZN4cvc58internal4expr4attr16AttributeManager12setAttributeINS1_9AttributeINS0_6theory5arith2nl28ArithNlCompareLitAttributeIdENS0_12NodeTemplateILb1EEEEEEEvPNS1_9NodeValueERKT_RKNSF_10value_typeE(ptr noundef nonnull align 8 dereferenceable(344) %12, ptr noundef nonnull %8, ptr noundef nonnull align 1 dereferenceable(1) %6, ptr noundef nonnull align 8 dereferenceable(8) %7)
          to label %13 unwind label %27

13:                                               ; preds = %5
  call void @llvm.lifetime.end.p0(i64 1, ptr nonnull %6) #24
  %14 = load ptr, ptr %7, align 8, !tbaa !6
  %15 = load i64, ptr %14, align 8
  %16 = and i64 %15, 1152920405095219200
  %.not.i.i = icmp eq i64 %16, 1152920405095219200
  br i1 %.not.i.i, label %_ZN4cvc58internal12NodeTemplateILb1EED2Ev.exit, label %17, !prof !16

17:                                               ; preds = %13
  %18 = add i64 %15, 1152920405095219200
  %19 = and i64 %18, 1152920405095219200
  %20 = and i64 %15, -1152920405095219201
  %21 = or disjoint i64 %19, %20
  store i64 %21, ptr %14, align 8
  %22 = icmp eq i64 %19, 0
  br i1 %22, label %23, label %_ZN4cvc58internal12NodeTemplateILb1EED2Ev.exit, !prof !16

23:                                               ; preds = %17
  invoke void @_ZN4cvc58internal4expr9NodeValue15markForDeletionEv(ptr noundef nonnull align 8 dereferenceable(24) %14)
          to label %_ZN4cvc58internal12NodeTemplateILb1EED2Ev.exit unwind label %24

24:                                               ; preds = %23
  %25 = landingpad { ptr, i32 }
          catch ptr null
  %26 = extractvalue { ptr, i32 } %25, 0
  call void @__clang_call_terminate(ptr %26) #26
  unreachable

_ZN4cvc58internal12NodeTemplateILb1EED2Ev.exit:   ; preds = %13, %17, %23
  call void @llvm.lifetime.end.p0(i64 8, ptr nonnull %7) #24
  ret void

27:                                               ; preds = %5
  %28 = landingpad { ptr, i32 }
          cleanup
  call void @_ZN4cvc58internal12NodeTemplateILb1EED2Ev(ptr noundef nonnull align 8 dereferenceable(8) %7) #24
  call void @llvm.lifetime.end.p0(i64 8, ptr nonnull %7) #24
  resume { ptr, i32 } %28
}